; Function Attrs: mustprogress nounwind uwtable
define internal fastcc void @_ZL18addPrepareFunctionRKN4llvm6ModuleERNS_15SmallVectorImplIPNS_8FunctionEEENS_9StringRefE(ptr noundef nonnull align 8 dereferenceable(857) %0, ptr noundef nonnull align 8 dereferenceable(16) %1, ptr %2, i64 %3) unnamed_addr #0 {
  %5 = tail call noundef ptr @_ZNK4llvm6Module11getFunctionENS_9StringRefE(ptr noundef nonnull align 8 dereferenceable(857) %0, ptr %2, i64 %3) #15
  %.not = icmp eq ptr %5, null
  br i1 %.not, label %22, label %6

6:                                                ; preds = %4
  %7 = getelementptr inbounds nuw i8, ptr %5, i64 16
  %8 = load ptr, ptr %7, align 8
  %9 = icmp eq ptr %8, null
  br i1 %9, label %22, label %10

10:                                               ; preds = %6
  %11 = tail call noundef i64 @_ZNK4llvm15SmallVectorBaseIjE4sizeEv(ptr noundef nonnull align 8 dereferenceable(16) %1) #15
  %12 = add i64 %11, 1
  %13 = tail call noundef i64 @_ZNK4llvm15SmallVectorBaseIjE8capacityEv(ptr noundef nonnull align 8 dereferenceable(16) %1) #15
  %.not.i.i.i = icmp ugt i64 %12, %13
  br i1 %.not.i.i.i, label %14, label %_ZN4llvm23SmallVectorTemplateBaseIPNS_8FunctionELb1EE9push_backES2_.exit

14:                                               ; preds = %10
  %15 = getelementptr inbounds nuw i8, ptr %1, i64 16
  tail call void @_ZN4llvm15SmallVectorBaseIjE8grow_podEPvmm(ptr noundef nonnull align 8 dereferenceable(16) %1, ptr noundef nonnull %15, i64 noundef %12, i64 noundef 8) #15
  br label %_ZN4llvm23SmallVectorTemplateBaseIPNS_8FunctionELb1EE9push_backES2_.exit

_ZN4llvm23SmallVectorTemplateBaseIPNS_8FunctionELb1EE9push_backES2_.exit: ; preds = %10, %14
  %16 = load ptr, ptr %1, align 8
  %17 = tail call noundef i64 @_ZNK4llvm15SmallVectorBaseIjE4sizeEv(ptr noundef nonnull align 8 dereferenceable(16) %1) #15
  %18 = getelementptr inbounds ptr, ptr %16, i64 %17
  %19 = ptrtoint ptr %5 to i64
  store i64 %19, ptr %18, align 1
  %20 = tail call noundef i64 @_ZNK4llvm15SmallVectorBaseIjE4sizeEv(ptr noundef nonnull align 8 dereferenceable(16) %1) #15
  %21 = add i64 %20, 1
  tail call void @_ZN4llvm15SmallVectorBaseIjE8set_sizeEm(ptr noundef nonnull align 8 dereferenceable(16) %1, i64 noundef %21) #15
  br label %22

22:                                               ; preds = %_ZN4llvm23SmallVectorTemplateBaseIPNS_8FunctionELb1EE9push_backES2_.exit, %6, %4
  ret void
}